target datalayout = "e-m:e-p270:32:32-p271:32:32-p272:64:64-i64:64-i128:128-f80:128-n8:16:32:64-S128"
target triple = "x86_64-pc-linux-gnu"

; Function Attrs: mustprogress uwtable
define hidden noundef i32 @_ZN19OpenColorIO_v2_5dev19GetOptimizationModeERKNS_16GenericImageDescE(ptr noundef nonnull align 8 dereferenceable(82) %0) #7 {
  %2 = alloca ptr, align 8
  %3 = alloca i32, align 4
  store ptr %0, ptr %2, align 8, !tbaa !44
  call void @llvm.lifetime.start.p0(i64 4, ptr %3) #3
  store i32 0, ptr %3, align 4, !tbaa !69
  %4 = load ptr, ptr %2, align 8, !tbaa !44
  %5 = call noundef zeroext i1 @_ZNK19OpenColorIO_v2_5dev16GenericImageDesc12isRGBAPackedEv(ptr noundef nonnull align 8 dereferenceable(82) %4)
  br i1 %5, label %6, label %11

6:                                                ; preds = %1
  store i32 1, ptr %3, align 4, !tbaa !69
  %7 = load ptr, ptr %2, align 8, !tbaa !44
  %8 = call noundef zeroext i1 @_ZNK19OpenColorIO_v2_5dev16GenericImageDesc7isFloatEv(ptr noundef nonnull align 8 dereferenceable(82) %7)
  br i1 %8, label %9, label %10

9:                                                ; preds = %6
  store i32 3, ptr %3, align 4, !tbaa !69
  br label %10

10:                                               ; preds = %9, %6
  br label %11

11:                                               ; preds = %10, %1
  %12 = load i32, ptr %3, align 4, !tbaa !69
  call void @llvm.lifetime.end.p0(i64 4, ptr %3) #3
  ret i32 %12
}