; Function Attrs: mustprogress uwtable
define hidden noundef range(i32 0, 4) i32 @_ZN19OpenColorIO_v2_5dev19GetOptimizationModeERKNS_16GenericImageDescE(ptr noundef nonnull align 8 dereferenceable(82) %0) local_unnamed_addr #5 {
  %2 = tail call noundef zeroext i1 @_ZNK19OpenColorIO_v2_5dev16GenericImageDesc12isRGBAPackedEv(ptr noundef nonnull align 8 dereferenceable(82) %0)
  br i1 %2, label %3, label %5

3:                                                ; preds = %1
  %4 = tail call noundef zeroext i1 @_ZNK19OpenColorIO_v2_5dev16GenericImageDesc7isFloatEv(ptr noundef nonnull align 8 dereferenceable(82) %0)
  %spec.select = select i1 %4, i32 3, i32 1
  br label %5

5:                                                ; preds = %3, %1
  %.0 = phi i32 [ 0, %1 ], [ %spec.select, %3 ]
  ret i32 %.0
}